target datalayout = "e-m:e-p270:32:32-p271:32:32-p272:64:64-i64:64-i128:128-f80:128-n8:16:32:64-S128"
target triple = "x86_64-pc-linux-gnu"

%struct.Float4X4 = type { %union.anon }
%union.anon = type { %struct.anon }
%struct.anon = type { float, float, float, float, float, float, float, float, float, float, float, float, float, float, float, float }
%struct.SDL_Renderer = type { ptr, ptr, ptr, ptr, ptr, ptr, ptr, ptr, ptr, ptr, ptr, ptr, ptr, ptr, ptr, ptr, ptr, ptr, ptr, ptr, ptr, ptr, ptr, ptr, ptr, ptr, ptr, ptr, ptr, ptr, i32, i8, ptr, i8, i8, i8, i64, i64, ptr, %struct.SDL_RenderViewState, %struct.SDL_FPoint, i32, i32, ptr, ptr, ptr, i32, float, float, float, float, %struct.SDL_FColor, i32, i32, i32, ptr, ptr, ptr, ptr, i32, %struct.SDL_FColor, float, %struct.SDL_Rect, %struct.SDL_Rect, i8, i8, i8, i8, ptr, i64, i64, i8, ptr, ptr, i32, ptr, i8, ptr, ptr }
%struct.SDL_RenderViewState = type { i32, i32, %struct.SDL_Rect, %struct.SDL_Rect, %struct.SDL_Rect, %struct.SDL_Rect, i8, %struct.SDL_FPoint, i32, i32, i32, %struct.SDL_FRect, %struct.SDL_FRect, %struct.SDL_FPoint, %struct.SDL_FPoint, %struct.SDL_FPoint }
%struct.SDL_FRect = type { float, float, float, float }
%struct.SDL_FPoint = type { float, float }
%struct.SDL_FColor = type { float, float, float, float }
%struct.SDL_Rect = type { i32, i32, i32, i32 }
%struct.VULKAN_RenderData = type { ptr, ptr, i8, ptr, i8, ptr, %struct.VkPhysicalDeviceProperties, %struct.VkPhysicalDeviceMemoryProperties, %struct.VkPhysicalDeviceFeatures, ptr, ptr, ptr, i8, i32, i32, ptr, ptr, ptr, i32, ptr, ptr, %struct.VkSurfaceCapabilitiesKHR, ptr, i8, i32, i32, ptr, [2 x ptr], ptr, [3 x ptr], [3 x ptr], ptr, ptr, [256 x %struct.VULKAN_Buffer], %struct.VULKAN_VertexShaderConstants, ptr, ptr, ptr, ptr, i32, i32, [8 x ptr], ptr, ptr, i32, i32, i32, ptr, ptr, i8, i8, i8, i32, i32, i32, %struct.VkSurfaceFormatKHR, %struct.VkExtent2D, i32, i32, ptr, ptr, ptr, ptr, ptr, ptr, i32, ptr, ptr, i32, i32, ptr, i32, i32, ptr, i8, i8, %struct.SDL_Rect, %struct.SDL_Rect, i32, i8, %struct.Float4X4, %struct.VkComponentMapping, i32, i8 }
%struct.VkPhysicalDeviceProperties = type { i32, i32, i32, i32, i32, [256 x i8], [16 x i8], %struct.VkPhysicalDeviceLimits, %struct.VkPhysicalDeviceSparseProperties }
%struct.VkPhysicalDeviceLimits = type { i32, i32, i32, i32, i32, i32, i32, i32, i32, i32, i32, i64, i64, i32, i32, i32, i32, i32, i32, i32, i32, i32, i32, i32, i32, i32, i32, i32, i32, i32, i32, i32, i32, i32, i32, i32, i32, i32, i32, i32, i32, i32, i32, i32, i32, i32, i32, i32, i32, i32, i32, i32, [3 x i32], i32, [3 x i32], i32, i32, i32, i32, i32, float, float, i32, [2 x i32], [2 x float], i32, i64, i64, i64, i64, i32, i32, i32, i32, float, float, i32, i32, i32, i32, i32, i32, i32, i32, i32, i32, i32, i32, i32, i32, i32, i32, float, i32, i32, i32, i32, [2 x float], [2 x float], float, float, i32, i32, i64, i64, i64 }
%struct.VkPhysicalDeviceSparseProperties = type { i32, i32, i32, i32, i32 }
%struct.VkPhysicalDeviceMemoryProperties = type { i32, [32 x %struct.VkMemoryType], i32, [16 x %struct.VkMemoryHeap] }
%struct.VkMemoryType = type { i32, i32 }
%struct.VkMemoryHeap = type { i64, i32 }
%struct.VkPhysicalDeviceFeatures = type { i32, i32, i32, i32, i32, i32, i32, i32, i32, i32, i32, i32, i32, i32, i32, i32, i32, i32, i32, i32, i32, i32, i32, i32, i32, i32, i32, i32, i32, i32, i32, i32, i32, i32, i32, i32, i32, i32, i32, i32, i32, i32, i32, i32, i32, i32, i32, i32, i32, i32, i32, i32, i32, i32, i32 }
%struct.VkSurfaceCapabilitiesKHR = type { i32, i32, %struct.VkExtent2D, %struct.VkExtent2D, %struct.VkExtent2D, i32, i32, i32, i32, i32 }
%struct.VULKAN_Buffer = type { ptr, ptr, i64, ptr }
%struct.VULKAN_VertexShaderConstants = type { %struct.Float4X4, %struct.Float4X4 }
%struct.VkSurfaceFormatKHR = type { i32, i32 }
%struct.VkExtent2D = type { i32, i32 }
%struct.VkComponentMapping = type { i32, i32, i32, i32 }

@.str.46 = private unnamed_addr constant [32 x i8] c"That operation is not supported\00", align 1

; Function Attrs: nounwind uwtable
define internal zeroext i1 @VULKAN_SetVSync(ptr noundef %0, i32 noundef %1) #0 {
  %3 = alloca i1, align 1
  %4 = alloca ptr, align 8
  %5 = alloca i32, align 4
  %6 = alloca ptr, align 8
  %7 = alloca i32, align 4
  store ptr %0, ptr %4, align 8
  store i32 %1, ptr %5, align 4
  call void @llvm.lifetime.start.p0(i64 8, ptr %6) #6
  %8 = load ptr, ptr %4, align 8
  %9 = getelementptr inbounds nuw %struct.SDL_Renderer, ptr %8, i32 0, i32 77
  %10 = load ptr, ptr %9, align 8
  store ptr %10, ptr %6, align 8
  %11 = load i32, ptr %5, align 4
  switch i32 %11, label %13 [
    i32 -1, label %12
    i32 0, label %12
    i32 1, label %12
  ]

12:                                               ; preds = %2, %2, %2
  br label %15

13:                                               ; preds = %2
  %14 = call zeroext i1 (ptr, ...) @SDL_SetError_REAL(ptr noundef @.str.46)
  store i1 %14, ptr %3, align 1
  store i32 1, ptr %7, align 4
  br label %28

15:                                               ; preds = %12
  %16 = load i32, ptr %5, align 4
  %17 = load ptr, ptr %6, align 8
  %18 = getelementptr inbounds nuw %struct.VULKAN_RenderData, ptr %17, i32 0, i32 24
  %19 = load i32, ptr %18, align 4
  %20 = icmp ne i32 %16, %19
  br i1 %20, label %21, label %27

21:                                               ; preds = %15
  %22 = load i32, ptr %5, align 4
  %23 = load ptr, ptr %6, align 8
  %24 = getelementptr inbounds nuw %struct.VULKAN_RenderData, ptr %23, i32 0, i32 24
  store i32 %22, ptr %24, align 4
  %25 = load ptr, ptr %6, align 8
  %26 = getelementptr inbounds nuw %struct.VULKAN_RenderData, ptr %25, i32 0, i32 23
  store i8 1, ptr %26, align 8
  br label %27

27:                                               ; preds = %21, %15
  store i1 true, ptr %3, align 1
  store i32 1, ptr %7, align 4
  br label %28

28:                                               ; preds = %27, %13
  call void @llvm.lifetime.end.p0(i64 8, ptr %6) #6
  %29 = load i1, ptr %3, align 1
  ret i1 %29
}