; Function Attrs: nounwind uwtable
define internal zeroext i1 @VULKAN_SetVSync(ptr noundef readonly captures(none) %0, i32 noundef %1) #0 {
  %3 = getelementptr inbounds nuw i8, ptr %0, i64 696
  %4 = load ptr, ptr %3, align 8
  switch i32 %1, label %5 [
    i32 -1, label %7
    i32 0, label %7
    i32 1, label %7
  ]

5:                                                ; preds = %2
  %6 = tail call zeroext i1 (ptr, ...) @SDL_SetError_REAL(ptr noundef nonnull @.str.46) #8
  br label %12

7:                                                ; preds = %2, %2, %2
  %8 = getelementptr inbounds nuw i8, ptr %4, i64 1772
  %9 = load i32, ptr %8, align 4
  %.not = icmp eq i32 %1, %9
  br i1 %.not, label %12, label %10

10:                                               ; preds = %7
  store i32 %1, ptr %8, align 4
  %11 = getelementptr inbounds nuw i8, ptr %4, i64 1768
  store i8 1, ptr %11, align 8
  br label %12

12:                                               ; preds = %7, %10, %5
  %.0 = phi i1 [ %6, %5 ], [ true, %10 ], [ true, %7 ]
  ret i1 %.0
}